target datalayout = "e-m:e-p270:32:32-p271:32:32-p272:64:64-i64:64-i128:128-f80:128-n8:16:32:64-S128"
target triple = "x86_64-pc-linux-gnu"

@_ZN6icu_77L22TENTATIVE_ERA_VAR_NAMEE = internal global ptr @.str.2, align 8
@.str = private unnamed_addr constant [5 x i8] c"true\00", align 1

; Function Attrs: mustprogress uwtable
define noundef signext i8 @_ZN6icu_7716JapaneseCalendar18enableTentativeEraEv() #1 align 2 {
  %1 = alloca i8, align 1
  %2 = alloca ptr, align 8
  call void @llvm.lifetime.start.p0(i64 1, ptr %1) #10
  store i8 0, ptr %1, align 1, !tbaa !8
  call void @llvm.lifetime.start.p0(i64 8, ptr %2) #10
  %3 = load ptr, ptr @_ZN6icu_77L22TENTATIVE_ERA_VAR_NAMEE, align 8, !tbaa !9
  %4 = call ptr @getenv(ptr noundef %3) #10
  store ptr %4, ptr %2, align 8, !tbaa !9
  %5 = load ptr, ptr %2, align 8, !tbaa !9
  %6 = icmp ne ptr %5, null
  br i1 %6, label %7, label %12

7:                                                ; preds = %0
  %8 = load ptr, ptr %2, align 8, !tbaa !9
  %9 = call i32 @uprv_stricmp_77(ptr noundef %8, ptr noundef @.str)
  %10 = icmp eq i32 %9, 0
  br i1 %10, label %11, label %12

11:                                               ; preds = %7
  store i8 1, ptr %1, align 1, !tbaa !8
  br label %12

12:                                               ; preds = %11, %7, %0
  %13 = load i8, ptr %1, align 1, !tbaa !8
  call void @llvm.lifetime.end.p0(i64 8, ptr %2) #10
  call void @llvm.lifetime.end.p0(i64 1, ptr %1) #10
  ret i8 %13
}