; Function Attrs: mustprogress uwtable
define noundef signext range(i8 0, 2) i8 @_ZN6icu_7716JapaneseCalendar18enableTentativeEraEv() local_unnamed_addr #1 align 2 {
  %1 = tail call ptr @getenv(ptr noundef nonnull @.str.2) #10
  %.not = icmp eq ptr %1, null
  br i1 %.not, label %5, label %2

2:                                                ; preds = %0
  %3 = tail call i32 @uprv_stricmp_77(ptr noundef nonnull %1, ptr noundef nonnull @.str)
  %4 = icmp eq i32 %3, 0
  %spec.select = zext i1 %4 to i8
  br label %5

5:                                                ; preds = %2, %0
  %.0 = phi i8 [ 0, %0 ], [ %spec.select, %2 ]
  ret i8 %.0
}